; Function Attrs: nounwind uwtable
define hidden void @Curl_node_uremove(ptr noundef %0, ptr noundef %1) local_unnamed_addr #2 {
  %.not = icmp eq ptr %0, null
  br i1 %.not, label %32, label %3

3:                                                ; preds = %2
  %4 = load ptr, ptr %0, align 8, !tbaa !14
  %.not10 = icmp eq ptr %4, null
  br i1 %.not10, label %32, label %5

5:                                                ; preds = %3
  %6 = load ptr, ptr %4, align 8, !tbaa !15
  %7 = icmp eq ptr %0, %6
  br i1 %7, label %8, label %15

8:                                                ; preds = %5
  %9 = getelementptr inbounds nuw i8, ptr %0, i64 24
  %10 = load ptr, ptr %9, align 8, !tbaa !18
  store ptr %10, ptr %4, align 8, !tbaa !15
  %.not33.i = icmp eq ptr %10, null
  br i1 %.not33.i, label %11, label %13

11:                                               ; preds = %8
  %12 = getelementptr inbounds nuw i8, ptr %4, i64 8
  store ptr null, ptr %12, align 8, !tbaa !16
  br label %Curl_node_take_elem.exit

13:                                               ; preds = %8
  %14 = getelementptr inbounds nuw i8, ptr %10, i64 16
  store ptr null, ptr %14, align 8, !tbaa !19
  br label %Curl_node_take_elem.exit

15:                                               ; preds = %5
  %16 = getelementptr inbounds nuw i8, ptr %0, i64 16
  %17 = load ptr, ptr %16, align 8, !tbaa !19
  %.not31.i = icmp eq ptr %17, null
  %.phi.trans.insert.i = getelementptr inbounds nuw i8, ptr %0, i64 24
  %.pre.i = load ptr, ptr %.phi.trans.insert.i, align 8, !tbaa !18
  br i1 %.not31.i, label %._crit_edge.i, label %18

18:                                               ; preds = %15
  %19 = getelementptr inbounds nuw i8, ptr %17, i64 24
  store ptr %.pre.i, ptr %19, align 8, !tbaa !18
  br label %._crit_edge.i

._crit_edge.i:                                    ; preds = %18, %15
  %.not32.i = icmp eq ptr %.pre.i, null
  br i1 %.not32.i, label %20, label %22

20:                                               ; preds = %._crit_edge.i
  %21 = getelementptr inbounds nuw i8, ptr %4, i64 8
  store ptr %17, ptr %21, align 8, !tbaa !16
  br label %Curl_node_take_elem.exit

22:                                               ; preds = %._crit_edge.i
  %23 = getelementptr inbounds nuw i8, ptr %.pre.i, i64 16
  store ptr %17, ptr %23, align 8, !tbaa !19
  br label %Curl_node_take_elem.exit

Curl_node_take_elem.exit:                         ; preds = %22, %20, %13, %11
  %24 = getelementptr inbounds nuw i8, ptr %4, i64 24
  %25 = load i64, ptr %24, align 8, !tbaa !3
  %26 = add i64 %25, -1
  store i64 %26, ptr %24, align 8, !tbaa !3
  %27 = getelementptr inbounds nuw i8, ptr %0, i64 8
  %28 = load ptr, ptr %27, align 8, !tbaa !11
  tail call void @llvm.memset.p0.i64(ptr noundef nonnull align 8 dereferenceable(32) %0, i8 0, i64 32, i1 false)
  %29 = getelementptr inbounds nuw i8, ptr %4, i64 16
  %30 = load ptr, ptr %29, align 8, !tbaa !10
  %.not11 = icmp eq ptr %30, null
  br i1 %.not11, label %32, label %31

31:                                               ; preds = %Curl_node_take_elem.exit
  tail call void %30(ptr noundef %1, ptr noundef %28) #5
  br label %32

32:                                               ; preds = %3, %31, %Curl_node_take_elem.exit, %2
  ret void
}